target datalayout = "e-m:e-p270:32:32-p271:32:32-p272:64:64-i64:64-i128:128-f80:128-n8:16:32:64-S128"
target triple = "x86_64-pc-linux-gnu"

%class.VerificationType = type { %union.anon }
%union.anon = type { ptr }
%class.StackMapFrame = type { i32, i32, i32, i32, i16, i16, i8, ptr, ptr, ptr }

@.str.9 = private unnamed_addr constant [9 x i8] c"bci: @%d\00", align 1
@.str.10 = private unnamed_addr constant [13 x i8] c"flags: {%s }\00", align 1
@.str.11 = private unnamed_addr constant [16 x i8] c" flagThisUninit\00", align 1
@.str.12 = private unnamed_addr constant [1 x i8] zeroinitializer, align 1
@.str.13 = private unnamed_addr constant [10 x i8] c"locals: {\00", align 1
@.str.14 = private unnamed_addr constant [2 x i8] c" \00", align 1
@.str.15 = private unnamed_addr constant [2 x i8] c",\00", align 1
@.str.16 = private unnamed_addr constant [3 x i8] c" }\00", align 1
@.str.17 = private unnamed_addr constant [9 x i8] c"stack: {\00", align 1

; Function Attrs: mustprogress nounwind uwtable
define linkonce_odr hidden noundef zeroext i1 @_ZNK13StackMapFrame16flag_this_uninitEv(ptr noundef nonnull align 8 dereferenceable(48) %0) #1 comdat align 2 {
  %2 = alloca ptr, align 8
  store ptr %0, ptr %2, align 8
  %3 = load ptr, ptr %2, align 8
  %4 = getelementptr inbounds %class.StackMapFrame, ptr %3, i32 0, i32 6
  %5 = load i8, ptr %4, align 4
  %6 = zext i8 %5 to i32
  %7 = and i32 %6, 1
  %8 = icmp ne i32 %7, 0
  ret i1 %8
}

; Function Attrs: mustprogress nounwind uwtable
define hidden void @_ZNK13StackMapFrame8print_onEP12outputStream(ptr noundef nonnull align 8 dereferenceable(48) %0, ptr noundef %1) #1 align 2 {
  %3 = alloca ptr, align 8
  %4 = alloca ptr, align 8
  %5 = alloca i32, align 4
  %6 = alloca i32, align 4
  store ptr %0, ptr %3, align 8
  store ptr %1, ptr %4, align 8
  %7 = load ptr, ptr %3, align 8
  %8 = load ptr, ptr %4, align 8
  %9 = call noundef nonnull align 8 dereferenceable(56) ptr @_ZN12outputStream6indentEv(ptr noundef nonnull align 8 dereferenceable(56) %8)
  %10 = getelementptr inbounds %class.StackMapFrame, ptr %7, i32 0, i32 0
  %11 = load i32, ptr %10, align 8
  call void (ptr, ptr, ...) @_ZN12outputStream8print_crEPKcz(ptr noundef nonnull align 8 dereferenceable(56) %9, ptr noundef @.str.9, i32 noundef %11)
  %12 = load ptr, ptr %4, align 8
  %13 = call noundef nonnull align 8 dereferenceable(56) ptr @_ZN12outputStream6indentEv(ptr noundef nonnull align 8 dereferenceable(56) %12)
  %14 = call noundef zeroext i1 @_ZNK13StackMapFrame16flag_this_uninitEv(ptr noundef nonnull align 8 dereferenceable(48) %7)
  %15 = select i1 %14, ptr @.str.11, ptr @.str.12
  call void (ptr, ptr, ...) @_ZN12outputStream8print_crEPKcz(ptr noundef nonnull align 8 dereferenceable(56) %13, ptr noundef @.str.10, ptr noundef %15)
  %16 = load ptr, ptr %4, align 8
  %17 = call noundef nonnull align 8 dereferenceable(56) ptr @_ZN12outputStream6indentEv(ptr noundef nonnull align 8 dereferenceable(56) %16)
  call void (ptr, ptr, ...) @_ZN12outputStream5printEPKcz(ptr noundef nonnull align 8 dereferenceable(56) %17, ptr noundef @.str.13)
  store i32 0, ptr %5, align 4
  br label %18

18:                                               ; preds = %39, %2
  %19 = load i32, ptr %5, align 4
  %20 = getelementptr inbounds %class.StackMapFrame, ptr %7, i32 0, i32 1
  %21 = load i32, ptr %20, align 4
  %22 = icmp slt i32 %19, %21
  br i1 %22, label %23, label %42

23:                                               ; preds = %18
  %24 = load ptr, ptr %4, align 8
  call void (ptr, ptr, ...) @_ZN12outputStream5printEPKcz(ptr noundef nonnull align 8 dereferenceable(56) %24, ptr noundef @.str.14)
  %25 = getelementptr inbounds %class.StackMapFrame, ptr %7, i32 0, i32 7
  %26 = load ptr, ptr %25, align 8
  %27 = load i32, ptr %5, align 4
  %28 = sext i32 %27 to i64
  %29 = getelementptr inbounds %class.VerificationType, ptr %26, i64 %28
  %30 = load ptr, ptr %4, align 8
  call void @_ZNK16VerificationType8print_onEP12outputStream(ptr noundef nonnull align 8 dereferenceable(8) %29, ptr noundef %30)
  %31 = load i32, ptr %5, align 4
  %32 = getelementptr inbounds %class.StackMapFrame, ptr %7, i32 0, i32 1
  %33 = load i32, ptr %32, align 4
  %34 = sub nsw i32 %33, 1
  %35 = icmp ne i32 %31, %34
  br i1 %35, label %36, label %38

36:                                               ; preds = %23
  %37 = load ptr, ptr %4, align 8
  call void (ptr, ptr, ...) @_ZN12outputStream5printEPKcz(ptr noundef nonnull align 8 dereferenceable(56) %37, ptr noundef @.str.15)
  br label %38

38:                                               ; preds = %36, %23
  br label %39

39:                                               ; preds = %38
  %40 = load i32, ptr %5, align 4
  %41 = add nsw i32 %40, 1
  store i32 %41, ptr %5, align 4
  br label %18, !llvm.loop !15

42:                                               ; preds = %18
  %43 = load ptr, ptr %4, align 8
  call void (ptr, ptr, ...) @_ZN12outputStream8print_crEPKcz(ptr noundef nonnull align 8 dereferenceable(56) %43, ptr noundef @.str.16)
  %44 = load ptr, ptr %4, align 8
  %45 = call noundef nonnull align 8 dereferenceable(56) ptr @_ZN12outputStream6indentEv(ptr noundef nonnull align 8 dereferenceable(56) %44)
  call void (ptr, ptr, ...) @_ZN12outputStream5printEPKcz(ptr noundef nonnull align 8 dereferenceable(56) %45, ptr noundef @.str.17)
  store i32 0, ptr %6, align 4
  br label %46

46:                                               ; preds = %67, %42
  %47 = load i32, ptr %6, align 4
  %48 = getelementptr inbounds %class.StackMapFrame, ptr %7, i32 0, i32 2
  %49 = load i32, ptr %48, align 8
  %50 = icmp slt i32 %47, %49
  br i1 %50, label %51, label %70

51:                                               ; preds = %46
  %52 = load ptr, ptr %4, align 8
  call void (ptr, ptr, ...) @_ZN12outputStream5printEPKcz(ptr noundef nonnull align 8 dereferenceable(56) %52, ptr noundef @.str.14)
  %53 = getelementptr inbounds %class.StackMapFrame, ptr %7, i32 0, i32 8
  %54 = load ptr, ptr %53, align 8
  %55 = load i32, ptr %6, align 4
  %56 = sext i32 %55 to i64
  %57 = getelementptr inbounds %class.VerificationType, ptr %54, i64 %56
  %58 = load ptr, ptr %4, align 8
  call void @_ZNK16VerificationType8print_onEP12outputStream(ptr noundef nonnull align 8 dereferenceable(8) %57, ptr noundef %58)
  %59 = load i32, ptr %6, align 4
  %60 = getelementptr inbounds %class.StackMapFrame, ptr %7, i32 0, i32 2
  %61 = load i32, ptr %60, align 8
  %62 = sub nsw i32 %61, 1
  %63 = icmp ne i32 %59, %62
  br i1 %63, label %64, label %66

64:                                               ; preds = %51
  %65 = load ptr, ptr %4, align 8
  call void (ptr, ptr, ...) @_ZN12outputStream5printEPKcz(ptr noundef nonnull align 8 dereferenceable(56) %65, ptr noundef @.str.15)
  br label %66

66:                                               ; preds = %64, %51
  br label %67

67:                                               ; preds = %66
  %68 = load i32, ptr %6, align 4
  %69 = add nsw i32 %68, 1
  store i32 %69, ptr %6, align 4
  br label %46, !llvm.loop !16

70:                                               ; preds = %46
  %71 = load ptr, ptr %4, align 8
  call void (ptr, ptr, ...) @_ZN12outputStream8print_crEPKcz(ptr noundef nonnull align 8 dereferenceable(56) %71, ptr noundef @.str.16)
  ret void
}