; Function Attrs: mustprogress nounwind uwtable
define hidden void @_ZNK13StackMapFrame8print_onEP12outputStream(ptr nocapture noundef nonnull readonly align 8 dereferenceable(48) %0, ptr noundef nonnull %1) local_unnamed_addr #0 align 2 {
  %3 = tail call noundef nonnull align 8 dereferenceable(56) ptr @_ZN12outputStream6indentEv(ptr noundef nonnull align 8 dereferenceable(56) %1) #12
  %4 = load i32, ptr %0, align 8
  tail call void (ptr, ptr, ...) @_ZN12outputStream8print_crEPKcz(ptr noundef nonnull align 8 dereferenceable(56) %3, ptr noundef nonnull @.str.9, i32 noundef %4) #12
  %5 = tail call noundef nonnull align 8 dereferenceable(56) ptr @_ZN12outputStream6indentEv(ptr noundef nonnull align 8 dereferenceable(56) %1) #12
  %6 = getelementptr inbounds i8, ptr %0, i64 20
  %7 = load i8, ptr %6, align 4
  %8 = and i8 %7, 1
  %.not22 = icmp eq i8 %8, 0
  %9 = select i1 %.not22, ptr @.str.12, ptr @.str.11
  tail call void (ptr, ptr, ...) @_ZN12outputStream8print_crEPKcz(ptr noundef nonnull align 8 dereferenceable(56) %5, ptr noundef nonnull @.str.10, ptr noundef nonnull %9) #12
  %10 = tail call noundef nonnull align 8 dereferenceable(56) ptr @_ZN12outputStream6indentEv(ptr noundef nonnull align 8 dereferenceable(56) %1) #12
  tail call void (ptr, ptr, ...) @_ZN12outputStream5printEPKcz(ptr noundef nonnull align 8 dereferenceable(56) %10, ptr noundef nonnull @.str.13) #12
  %11 = getelementptr inbounds i8, ptr %0, i64 4
  %12 = load i32, ptr %11, align 4
  %13 = icmp sgt i32 %12, 0
  br i1 %13, label %.lr.ph, label %._crit_edge

.lr.ph:                                           ; preds = %2
  %14 = getelementptr inbounds i8, ptr %0, i64 24
  br label %15

15:                                               ; preds = %.lr.ph, %22
  %indvars.iv = phi i64 [ 0, %.lr.ph ], [ %indvars.iv.next, %22 ]
  tail call void (ptr, ptr, ...) @_ZN12outputStream5printEPKcz(ptr noundef nonnull align 8 dereferenceable(56) %1, ptr noundef nonnull @.str.14) #12
  %16 = load ptr, ptr %14, align 8
  %17 = getelementptr inbounds %class.VerificationType, ptr %16, i64 %indvars.iv
  tail call void @_ZNK16VerificationType8print_onEP12outputStream(ptr noundef nonnull align 8 dereferenceable(8) %17, ptr noundef nonnull %1) #12
  %18 = load i32, ptr %11, align 4
  %19 = add nsw i32 %18, -1
  %20 = zext i32 %19 to i64
  %.not21 = icmp eq i64 %indvars.iv, %20
  br i1 %.not21, label %22, label %21

21:                                               ; preds = %15
  tail call void (ptr, ptr, ...) @_ZN12outputStream5printEPKcz(ptr noundef nonnull align 8 dereferenceable(56) %1, ptr noundef nonnull @.str.15) #12
  %.pre = load i32, ptr %11, align 4
  br label %22

22:                                               ; preds = %15, %21
  %23 = phi i32 [ %18, %15 ], [ %.pre, %21 ]
  %indvars.iv.next = add nuw nsw i64 %indvars.iv, 1
  %24 = sext i32 %23 to i64
  %25 = icmp slt i64 %indvars.iv.next, %24
  br i1 %25, label %15, label %._crit_edge, !llvm.loop !54

._crit_edge:                                      ; preds = %22, %2
  tail call void (ptr, ptr, ...) @_ZN12outputStream8print_crEPKcz(ptr noundef nonnull align 8 dereferenceable(56) %1, ptr noundef nonnull @.str.16) #12
  %26 = tail call noundef nonnull align 8 dereferenceable(56) ptr @_ZN12outputStream6indentEv(ptr noundef nonnull align 8 dereferenceable(56) %1) #12
  tail call void (ptr, ptr, ...) @_ZN12outputStream5printEPKcz(ptr noundef nonnull align 8 dereferenceable(56) %26, ptr noundef nonnull @.str.17) #12
  %27 = getelementptr inbounds i8, ptr %0, i64 8
  %28 = load i32, ptr %27, align 8
  %29 = icmp sgt i32 %28, 0
  br i1 %29, label %.lr.ph26, label %._crit_edge27

.lr.ph26:                                         ; preds = %._crit_edge
  %30 = getelementptr inbounds i8, ptr %0, i64 32
  br label %31

31:                                               ; preds = %.lr.ph26, %38
  %indvars.iv29 = phi i64 [ 0, %.lr.ph26 ], [ %indvars.iv.next30, %38 ]
  tail call void (ptr, ptr, ...) @_ZN12outputStream5printEPKcz(ptr noundef nonnull align 8 dereferenceable(56) %1, ptr noundef nonnull @.str.14) #12
  %32 = load ptr, ptr %30, align 8
  %33 = getelementptr inbounds %class.VerificationType, ptr %32, i64 %indvars.iv29
  tail call void @_ZNK16VerificationType8print_onEP12outputStream(ptr noundef nonnull align 8 dereferenceable(8) %33, ptr noundef nonnull %1) #12
  %34 = load i32, ptr %27, align 8
  %35 = add nsw i32 %34, -1
  %36 = zext i32 %35 to i64
  %.not = icmp eq i64 %indvars.iv29, %36
  br i1 %.not, label %38, label %37

37:                                               ; preds = %31
  tail call void (ptr, ptr, ...) @_ZN12outputStream5printEPKcz(ptr noundef nonnull align 8 dereferenceable(56) %1, ptr noundef nonnull @.str.15) #12
  %.pre32 = load i32, ptr %27, align 8
  br label %38

38:                                               ; preds = %31, %37
  %39 = phi i32 [ %34, %31 ], [ %.pre32, %37 ]
  %indvars.iv.next30 = add nuw nsw i64 %indvars.iv29, 1
  %40 = sext i32 %39 to i64
  %41 = icmp slt i64 %indvars.iv.next30, %40
  br i1 %41, label %31, label %._crit_edge27, !llvm.loop !55

._crit_edge27:                                    ; preds = %38, %._crit_edge
  tail call void (ptr, ptr, ...) @_ZN12outputStream8print_crEPKcz(ptr noundef nonnull align 8 dereferenceable(56) %1, ptr noundef nonnull @.str.16) #12
  ret void
}